; Function Attrs: nounwind uwtable
define zeroext range(i8 0, 2) i8 @l___private_Std_Net_Addr_0__Std_Net_decEqSocketAddress____x40_Std_Net_Addr___hyg_956_(ptr noundef %0, ptr noundef %1) local_unnamed_addr #0 {
  %3 = ptrtoint ptr %0 to i64
  %4 = and i64 %3, 1
  %.not.i = icmp eq i64 %4, 0
  br i1 %.not.i, label %8, label %5

5:                                                ; preds = %2
  %6 = lshr i64 %3, 1
  %7 = trunc i64 %6 to i32
  br label %lean_obj_tag.exit

8:                                                ; preds = %2
  %9 = getelementptr i8, ptr %0, i64 4
  %.val.i = load i32, ptr %9, align 4
  %10 = lshr i32 %.val.i, 24
  br label %lean_obj_tag.exit

lean_obj_tag.exit:                                ; preds = %5, %8
  %.0.i = phi i32 [ %7, %5 ], [ %10, %8 ]
  %11 = icmp eq i32 %.0.i, 0
  %12 = ptrtoint ptr %1 to i64
  %13 = and i64 %12, 1
  %.not.i15 = icmp eq i64 %13, 0
  br i1 %11, label %14, label %22

14:                                               ; preds = %lean_obj_tag.exit
  br i1 %.not.i15, label %18, label %15

15:                                               ; preds = %14
  %16 = lshr i64 %12, 1
  %17 = trunc i64 %16 to i32
  br label %lean_obj_tag.exit18

18:                                               ; preds = %14
  %19 = getelementptr i8, ptr %1, i64 4
  %.val.i17 = load i32, ptr %19, align 4
  %20 = lshr i32 %.val.i17, 24
  br label %lean_obj_tag.exit18

lean_obj_tag.exit18:                              ; preds = %15, %18
  %.0.i16 = phi i32 [ %17, %15 ], [ %20, %18 ]
  %21 = icmp eq i32 %.0.i16, 0
  br i1 %21, label %.sink.split, label %45

22:                                               ; preds = %lean_obj_tag.exit
  br i1 %.not.i15, label %26, label %23

23:                                               ; preds = %22
  %24 = lshr i64 %12, 1
  %25 = trunc i64 %24 to i32
  br label %lean_obj_tag.exit24

26:                                               ; preds = %22
  %27 = getelementptr i8, ptr %1, i64 4
  %.val.i23 = load i32, ptr %27, align 4
  %28 = lshr i32 %.val.i23, 24
  br label %lean_obj_tag.exit24

lean_obj_tag.exit24:                              ; preds = %23, %26
  %.0.i22 = phi i32 [ %25, %23 ], [ %28, %26 ]
  %29 = icmp eq i32 %.0.i22, 0
  br i1 %29, label %45, label %.sink.split

.sink.split:                                      ; preds = %lean_obj_tag.exit24, %lean_obj_tag.exit18
  %l___private_Init_Data_Vector_Basic_0__decEqVector____x40_Init_Data_Vector_Basic___hyg_100____at___private_Std_Net_Addr_0__Std_Net_decEqIPv6Addr____x40_Std_Net_Addr___hyg_433____spec__1___rarg___closed__1.sink = phi ptr [ @l___private_Init_Data_Vector_Basic_0__decEqVector____x40_Init_Data_Vector_Basic___hyg_100____at___private_Std_Net_Addr_0__Std_Net_decEqMACAddr____x40_Std_Net_Addr___hyg_29____spec__1___rarg___closed__1, %lean_obj_tag.exit18 ], [ @l___private_Init_Data_Vector_Basic_0__decEqVector____x40_Init_Data_Vector_Basic___hyg_100____at___private_Std_Net_Addr_0__Std_Net_decEqIPv6Addr____x40_Std_Net_Addr___hyg_433____spec__1___rarg___closed__1, %lean_obj_tag.exit24 ]
  %30 = getelementptr inbounds nuw i8, ptr %0, i64 8
  %31 = load ptr, ptr %30, align 8, !tbaa !4
  %32 = getelementptr inbounds nuw i8, ptr %1, i64 8
  %33 = load ptr, ptr %32, align 8, !tbaa !4
  %34 = getelementptr inbounds nuw i8, ptr %31, i64 8
  %35 = load ptr, ptr %34, align 8, !tbaa !4
  %36 = getelementptr i8, ptr %31, i64 16
  %.val12.i25 = load i16, ptr %36, align 2, !tbaa !11
  %37 = getelementptr inbounds nuw i8, ptr %33, i64 8
  %38 = load ptr, ptr %37, align 8, !tbaa !4
  %39 = getelementptr i8, ptr %33, i64 16
  %.val.i26 = load i16, ptr %39, align 2, !tbaa !11
  %40 = load ptr, ptr %l___private_Init_Data_Vector_Basic_0__decEqVector____x40_Init_Data_Vector_Basic___hyg_100____at___private_Std_Net_Addr_0__Std_Net_decEqIPv6Addr____x40_Std_Net_Addr___hyg_433____spec__1___rarg___closed__1.sink, align 8, !tbaa !4
  %41 = tail call zeroext i8 @l_Array_instDecidableEq___rarg(ptr noundef %40, ptr noundef %35, ptr noundef %38) #7
  %42 = icmp ne i8 %41, 0
  %43 = icmp eq i16 %.val12.i25, %.val.i26
  %narrow.i27 = select i1 %42, i1 %43, i1 false
  %44 = zext i1 %narrow.i27 to i8
  br label %45

45:                                               ; preds = %.sink.split, %lean_obj_tag.exit24, %lean_obj_tag.exit18
  %.0.shrunk = phi i8 [ 0, %lean_obj_tag.exit18 ], [ 0, %lean_obj_tag.exit24 ], [ %44, %.sink.split ]
  ret i8 %.0.shrunk
}